; Function Attrs: mustprogress uwtable
define dso_local void @_ZN4Luau15GenericTypePackC2EPNS_5ScopeE(ptr noundef nonnull align 8 dereferenceable(57) initializes((0, 12), (16, 24)) %0, ptr noundef %1) unnamed_addr #2 align 2 personality ptr @__gxx_personality_v0 {
  %3 = tail call noundef i32 @_ZN4Luau9Unifiable10freshIndexEv()
  store i32 %3, ptr %0, align 8, !tbaa !16
  %4 = getelementptr inbounds nuw i8, ptr %0, i64 4
  store i32 0, ptr %4, align 4, !tbaa !14
  %5 = getelementptr inbounds nuw i8, ptr %0, i64 8
  store i32 0, ptr %5, align 8, !tbaa !15
  %6 = getelementptr inbounds nuw i8, ptr %0, i64 16
  store ptr %1, ptr %6, align 8, !tbaa !23
  %7 = getelementptr inbounds nuw i8, ptr %0, i64 24
  %8 = getelementptr inbounds nuw i8, ptr %0, i64 40
  store ptr %8, ptr %7, align 8, !tbaa !29
  %9 = getelementptr inbounds nuw i8, ptr %0, i64 32
  store i64 0, ptr %9, align 8, !tbaa !36
  store i8 0, ptr %8, align 8, !tbaa !31
  %10 = getelementptr inbounds nuw i8, ptr %0, i64 56
  store i8 0, ptr %10, align 8, !tbaa !37
  ret void
}